target datalayout = "e-m:e-p270:32:32-p271:32:32-p272:64:64-i64:64-i128:128-f80:128-n8:16:32:64-S128"
target triple = "x86_64-pc-linux-gnu"

%union.pthread_mutex_t = type { %struct.__pthread_mutex_s }
%struct.__pthread_mutex_s = type { i32, i32, i32, i32, i32, i16, i16, %struct.__pthread_internal_list }
%struct.__pthread_internal_list = type { ptr, ptr }

@conf_mutex = internal global %union.pthread_mutex_t zeroinitializer, align 8
@.str.5 = private unnamed_addr constant [29 x i8] c"%s: pthread_mutex_lock(): %m\00", align 1
@.str.8 = private unnamed_addr constant [31 x i8] c"%s: pthread_mutex_unlock(): %m\00", align 1
@__func__.acct_gather_conf_values = private unnamed_addr constant [24 x i8] c"acct_gather_conf_values\00", align 1

; Function Attrs: nounwind uwtable
define dso_local ptr @acct_gather_conf_values() #0 {
  %1 = alloca ptr, align 8
  %2 = alloca i32, align 4
  %3 = alloca i32, align 4
  call void @llvm.lifetime.start.p0(i64 8, ptr %1) #6
  %4 = call ptr @list_create(ptr noundef @destroy_config_key_pair)
  store ptr %4, ptr %1, align 8
  br label %5

5:                                                ; preds = %0
  call void @llvm.lifetime.start.p0(i64 4, ptr %2) #6
  %6 = call i32 @pthread_mutex_lock(ptr noundef @conf_mutex) #6
  store i32 %6, ptr %2, align 4
  %7 = load i32, ptr %2, align 4
  %8 = icmp ne i32 %7, 0
  br i1 %8, label %9, label %12

9:                                                ; preds = %5
  %10 = load i32, ptr %2, align 4
  %11 = call ptr @__errno_location() #8
  store i32 %10, ptr %11, align 4
  call void (ptr, ...) @fatal_abort(ptr noundef @.str.5, ptr noundef @__func__.acct_gather_conf_values) #7
  unreachable

12:                                               ; preds = %5
  call void @llvm.lifetime.end.p0(i64 4, ptr %2) #6
  br label %13

13:                                               ; preds = %12
  br label %14

14:                                               ; preds = %13
  call void @acct_gather_profile_g_conf_values(ptr noundef %1)
  %15 = call i32 @acct_gather_interconnect_g_conf_values(ptr noundef %1)
  %16 = call i32 @acct_gather_energy_g_conf_values(ptr noundef %1)
  %17 = call i32 @acct_gather_filesystem_g_conf_values(ptr noundef %1)
  br label %18

18:                                               ; preds = %14
  call void @llvm.lifetime.start.p0(i64 4, ptr %3) #6
  %19 = call i32 @pthread_mutex_unlock(ptr noundef @conf_mutex) #6
  store i32 %19, ptr %3, align 4
  %20 = load i32, ptr %3, align 4
  %21 = icmp ne i32 %20, 0
  br i1 %21, label %22, label %25

22:                                               ; preds = %18
  %23 = load i32, ptr %3, align 4
  %24 = call ptr @__errno_location() #8
  store i32 %23, ptr %24, align 4
  call void (ptr, ...) @fatal_abort(ptr noundef @.str.8, ptr noundef @__func__.acct_gather_conf_values) #7
  unreachable

25:                                               ; preds = %18
  call void @llvm.lifetime.end.p0(i64 4, ptr %3) #6
  br label %26

26:                                               ; preds = %25
  br label %27

27:                                               ; preds = %26
  %28 = load ptr, ptr %1, align 8
  call void @list_sort(ptr noundef %28, ptr noundef @sort_key_pairs)
  %29 = load ptr, ptr %1, align 8
  call void @llvm.lifetime.end.p0(i64 8, ptr %1) #6
  ret ptr %29
}