; Function Attrs: nounwind uwtable
define dso_local ptr @acct_gather_conf_values() local_unnamed_addr #0 {
  %1 = alloca ptr, align 8
  call void @llvm.lifetime.start.p0(i64 8, ptr nonnull %1) #9
  %2 = tail call ptr @list_create(ptr noundef nonnull @destroy_config_key_pair) #9
  store ptr %2, ptr %1, align 8
  %3 = tail call i32 @pthread_mutex_lock(ptr noundef nonnull @conf_mutex) #9
  %.not = icmp eq i32 %3, 0
  br i1 %.not, label %6, label %4

4:                                                ; preds = %0
  %5 = tail call ptr @__errno_location() #11
  store i32 %3, ptr %5, align 4
  tail call void (ptr, ...) @fatal_abort(ptr noundef nonnull @.str.5, ptr noundef nonnull @__func__.acct_gather_conf_values) #10
  unreachable

6:                                                ; preds = %0
  call void @acct_gather_profile_g_conf_values(ptr noundef nonnull %1) #9
  %7 = call i32 @acct_gather_interconnect_g_conf_values(ptr noundef nonnull %1) #9
  %8 = call i32 @acct_gather_energy_g_conf_values(ptr noundef nonnull %1) #9
  %9 = call i32 @acct_gather_filesystem_g_conf_values(ptr noundef nonnull %1) #9
  %10 = call i32 @pthread_mutex_unlock(ptr noundef nonnull @conf_mutex) #9
  %.not5 = icmp eq i32 %10, 0
  br i1 %.not5, label %13, label %11

11:                                               ; preds = %6
  %12 = tail call ptr @__errno_location() #11
  store i32 %10, ptr %12, align 4
  call void (ptr, ...) @fatal_abort(ptr noundef nonnull @.str.8, ptr noundef nonnull @__func__.acct_gather_conf_values) #10
  unreachable

13:                                               ; preds = %6
  %14 = load ptr, ptr %1, align 8
  call void @list_sort(ptr noundef %14, ptr noundef nonnull @sort_key_pairs) #9
  %15 = load ptr, ptr %1, align 8
  call void @llvm.lifetime.end.p0(i64 8, ptr nonnull %1) #9
  ret ptr %15
}